; Function Attrs: mustprogress uwtable
define void @_ZNK16IcuTestErrorCode13handleFailureEv(ptr noundef nonnull align 8 dereferenceable(96) %this) unnamed_addr #1 align 2 personality ptr @__gxx_personality_v0 {
entry:
  %ref.tmp = alloca %"class.icu_75::UnicodeString", align 8
  call void @_ZN6icu_7513UnicodeStringC1EPKDs(ptr noundef nonnull align 8 dereferenceable(64) %ref.tmp, ptr noundef nonnull @.str.4)
  invoke void @_ZNK16IcuTestErrorCode6errlogEaRKN6icu_7513UnicodeStringEPKc(ptr noundef nonnull align 8 dereferenceable(96) %this, i8 noundef signext 0, ptr noundef nonnull align 8 dereferenceable(64) %ref.tmp, ptr noundef null)
          to label %invoke.cont unwind label %lpad

invoke.cont:                                      ; preds = %entry
  call void @_ZN6icu_7513UnicodeStringD1Ev(ptr noundef nonnull align 8 dereferenceable(64) %ref.tmp) #20
  ret void

lpad:                                             ; preds = %entry
  %0 = landingpad { ptr, i32 }
          cleanup
  call void @_ZN6icu_7513UnicodeStringD1Ev(ptr noundef nonnull align 8 dereferenceable(64) %ref.tmp) #20
  resume { ptr, i32 } %0
}